; ModuleID = '37/405.c'
source_filename = "37/405.c"
target datalayout = "e-m:e-p270:32:32-p271:32:32-p272:64:64-i64:64-f80:128-n8:16:32:64-S128"
target triple = "x86_64-pc-linux-gnu"

@.str = private unnamed_addr constant [4 x i8] c"%d\0A\00", align 1
@.str.1 = private unnamed_addr constant [4 x i8] c"%c\0A\00", align 1
@.str.2 = private unnamed_addr constant [4 x i8] c"no\0A\00", align 1

; Function Attrs: noinline nounwind uwtable
define dso_local void @main() #0 {
  %1 = alloca i32, align 4
  %2 = alloca i32, align 4
  %3 = alloca i32, align 4
  %4 = alloca i32, align 4
  %5 = alloca i32, align 4
  %6 = alloca i32, align 4
  %7 = alloca i8*, align 8
  %8 = alloca i8*, align 8
  %9 = call i32 (i8*, ...) @__isoc99_scanf(i8* getelementptr inbounds ([4 x i8], [4 x i8]* @.str, i64 0, i64 0), i32* %4)
  store i32 0, i32* %1, align 4
  br label %10

10:                                               ; preds = %78, %0
  %11 = load i32, i32* %1, align 4
  %12 = load i32, i32* %4, align 4
  %13 = icmp slt i32 %11, %12
  br i1 %13, label %14, label %81

14:                                               ; preds = %10
  %15 = call noalias i8* @malloc(i64 100000) #3
  store i8* %15, i8** %7, align 8
  %16 = load i8*, i8** %7, align 8
  %17 = call i32 (i8*, ...) bitcast (i32 (...)* @gets to i32 (i8*, ...)*)(i8* %16)
  %18 = load i8*, i8** %7, align 8
  store i8* %18, i8** %8, align 8
  store i32 1, i32* %6, align 4
  store i32 0, i32* %2, align 4
  br label %19

19:                                               ; preds = %69, %14
  %20 = load i8*, i8** %7, align 8
  %21 = load i32, i32* %2, align 4
  %22 = sext i32 %21 to i64
  %23 = getelementptr inbounds i8, i8* %20, i64 %22
  %24 = load i8, i8* %23, align 1
  %25 = sext i8 %24 to i32
  %26 = icmp ne i32 %25, 0
  br i1 %26, label %27, label %72

27:                                               ; preds = %19
  store i32 0, i32* %3, align 4
  store i32 0, i32* %5, align 4
  br label %28

28:                                               ; preds = %54, %27
  %29 = load i8*, i8** %8, align 8
  %30 = load i32, i32* %3, align 4
  %31 = sext i32 %30 to i64
  %32 = getelementptr inbounds i8, i8* %29, i64 %31
  %33 = load i8, i8* %32, align 1
  %34 = sext i8 %33 to i32
  %35 = icmp ne i32 %34, 0
  br i1 %35, label %36, label %57

36:                                               ; preds = %28
  %37 = load i8*, i8** %8, align 8
  %38 = load i32, i32* %3, align 4
  %39 = sext i32 %38 to i64
  %40 = getelementptr inbounds i8, i8* %37, i64 %39
  %41 = load i8, i8* %40, align 1
  %42 = sext i8 %41 to i32
  %43 = load i8*, i8** %7, align 8
  %44 = load i32, i32* %2, align 4
  %45 = sext i32 %44 to i64
  %46 = getelementptr inbounds i8, i8* %43, i64 %45
  %47 = load i8, i8* %46, align 1
  %48 = sext i8 %47 to i32
  %49 = icmp eq i32 %42, %48
  br i1 %49, label %50, label %53

50:                                               ; preds = %36
  %51 = load i32, i32* %5, align 4
  %52 = add nsw i32 %51, 1
  store i32 %52, i32* %5, align 4
  br label %53

53:                                               ; preds = %50, %36
  br label %54

54:                                               ; preds = %53
  %55 = load i32, i32* %3, align 4
  %56 = add nsw i32 %55, 1
  store i32 %56, i32* %3, align 4
  br label %28

57:                                               ; preds = %28
  %58 = load i32, i32* %5, align 4
  %59 = icmp eq i32 %58, 1
  br i1 %59, label %60, label %68

60:                                               ; preds = %57
  store i32 0, i32* %6, align 4
  %61 = load i8*, i8** %7, align 8
  %62 = load i32, i32* %2, align 4
  %63 = sext i32 %62 to i64
  %64 = getelementptr inbounds i8, i8* %61, i64 %63
  %65 = load i8, i8* %64, align 1
  %66 = sext i8 %65 to i32
  %67 = call i32 (i8*, ...) @printf(i8* getelementptr inbounds ([4 x i8], [4 x i8]* @.str.1, i64 0, i64 0), i32 %66)
  br label %72

68:                                               ; preds = %57
  br label %69

69:                                               ; preds = %68
  %70 = load i32, i32* %2, align 4
  %71 = add nsw i32 %70, 1
  store i32 %71, i32* %2, align 4
  br label %19

72:                                               ; preds = %60, %19
  %73 = load i32, i32* %6, align 4
  %74 = icmp eq i32 %73, 1
  br i1 %74, label %75, label %77

75:                                               ; preds = %72
  %76 = call i32 (i8*, ...) @printf(i8* getelementptr inbounds ([4 x i8], [4 x i8]* @.str.2, i64 0, i64 0))
  br label %77

77:                                               ; preds = %75, %72
  br label %78

78:                                               ; preds = %77
  %79 = load i32, i32* %1, align 4
  %80 = add nsw i32 %79, 1
  store i32 %80, i32* %1, align 4
  br label %10

81:                                               ; preds = %10
  ret void
}

declare dso_local i32 @__isoc99_scanf(i8*, ...) #1

; Function Attrs: nounwind
declare dso_local noalias i8* @malloc(i64) #2

declare dso_local i32 @gets(...) #1

declare dso_local i32 @printf(i8*, ...) #1


!llvm.module.flags = !{!0}
!llvm.ident = !{!1}

!0 = !{i32 1, !"wchar_size", i32 4}
!1 = !{!"clang version 10.0.0-4ubuntu1 "}
