; ModuleID = 'source-C-CXX/36/405.c'
source_filename = "source-C-CXX/36/405.c"
target datalayout = "e-m:e-p270:32:32-p271:32:32-p272:64:64-i64:64-f80:128-n8:16:32:64-S128"
target triple = "x86_64-pc-linux-gnu"

@.str = private unnamed_addr constant [4 x i8] c"%d\0A\00", align 1
@.str.1 = private unnamed_addr constant [4 x i8] c"%c\0A\00", align 1
@str = private unnamed_addr constant [3 x i8] c"no\00", align 1

; Function Attrs: nounwind sspstrong uwtable
define dso_local void @main() local_unnamed_addr #0 {
  %1 = alloca i32, align 4
  %2 = bitcast i32* %1 to i8*
  call void @llvm.lifetime.start.p0i8(i64 4, i8* nonnull %2) #6
  %3 = call i32 (i8*, ...) @__isoc99_scanf(i8* getelementptr inbounds ([4 x i8], [4 x i8]* @.str, i64 0, i64 0), i32* nonnull %1)
  %4 = load i32, i32* %1, align 4, !tbaa !5
  %5 = icmp sgt i32 %4, 0
  br i1 %5, label %6, label %42

6:                                                ; preds = %0, %38
  %7 = phi i32 [ %39, %38 ], [ 0, %0 ]
  %8 = call noalias align 16 dereferenceable_or_null(100000) i8* @malloc(i64 100000) #6
  %9 = call i32 (i8*, ...) bitcast (i32 (...)* @gets to i32 (i8*, ...)*)(i8* %8) #6
  %10 = load i8, i8* %8, align 16, !tbaa !9
  %11 = icmp eq i8 %10, 0
  br i1 %11, label %36, label %16

12:                                               ; preds = %30
  %13 = getelementptr inbounds i8, i8* %8, i64 %32
  %14 = load i8, i8* %13, align 1, !tbaa !9
  %15 = icmp eq i8 %14, 0
  br i1 %15, label %36, label %16, !llvm.loop !10

16:                                               ; preds = %6, %12
  %17 = phi i64 [ %32, %12 ], [ 0, %6 ]
  %18 = phi i8 [ %14, %12 ], [ %10, %6 ]
  br label %19

19:                                               ; preds = %16, %19
  %20 = phi i64 [ 0, %16 ], [ %26, %19 ]
  %21 = phi i8 [ %10, %16 ], [ %28, %19 ]
  %22 = phi i32 [ 0, %16 ], [ %25, %19 ]
  %23 = icmp eq i8 %21, %18
  %24 = zext i1 %23 to i32
  %25 = add nuw nsw i32 %22, %24
  %26 = add nuw nsw i64 %20, 1
  %27 = getelementptr inbounds i8, i8* %8, i64 %26
  %28 = load i8, i8* %27, align 1, !tbaa !9
  %29 = icmp eq i8 %28, 0
  br i1 %29, label %30, label %19, !llvm.loop !12

30:                                               ; preds = %19
  %31 = icmp eq i32 %25, 1
  %32 = add nuw i64 %17, 1
  br i1 %31, label %33, label %12

33:                                               ; preds = %30
  %34 = sext i8 %18 to i32
  %35 = call i32 (i8*, ...) @printf(i8* nonnull dereferenceable(1) getelementptr inbounds ([4 x i8], [4 x i8]* @.str.1, i64 0, i64 0), i32 %34)
  br label %38

36:                                               ; preds = %12, %6
  %37 = call i32 @puts(i8* nonnull dereferenceable(1) getelementptr inbounds ([3 x i8], [3 x i8]* @str, i64 0, i64 0))
  br label %38

38:                                               ; preds = %33, %36
  %39 = add nuw nsw i32 %7, 1
  %40 = load i32, i32* %1, align 4, !tbaa !5
  %41 = icmp slt i32 %39, %40
  br i1 %41, label %6, label %42, !llvm.loop !13

42:                                               ; preds = %38, %0
  call void @llvm.lifetime.end.p0i8(i64 4, i8* nonnull %2) #6
  ret void
}

; Function Attrs: argmemonly mustprogress nofree nosync nounwind willreturn
declare void @llvm.lifetime.start.p0i8(i64 immarg, i8* nocapture) #1

; Function Attrs: nofree nounwind
declare noundef i32 @__isoc99_scanf(i8* nocapture noundef readonly, ...) local_unnamed_addr #2

; Function Attrs: inaccessiblememonly mustprogress nofree nounwind willreturn
declare noalias noundef align 16 i8* @malloc(i64 noundef) local_unnamed_addr #3

declare i32 @gets(...) local_unnamed_addr #4

; Function Attrs: nofree nounwind
declare noundef i32 @printf(i8* nocapture noundef readonly, ...) local_unnamed_addr #2

; Function Attrs: argmemonly mustprogress nofree nosync nounwind willreturn
declare void @llvm.lifetime.end.p0i8(i64 immarg, i8* nocapture) #1

; Function Attrs: nofree nounwind
declare noundef i32 @puts(i8* nocapture noundef readonly) local_unnamed_addr #5


!llvm.module.flags = !{!0, !1, !2, !3}
!llvm.ident = !{!4}

!0 = !{i32 1, !"wchar_size", i32 4}
!1 = !{i32 7, !"PIC Level", i32 2}
!2 = !{i32 7, !"PIE Level", i32 2}
!3 = !{i32 7, !"uwtable", i32 1}
!4 = !{!"clang version 13.0.0"}
!5 = !{!6, !6, i64 0}
!6 = !{!"int", !7, i64 0}
!7 = !{!"omnipotent char", !8, i64 0}
!8 = !{!"Simple C/C++ TBAA"}
!9 = !{!7, !7, i64 0}
!10 = distinct !{!10, !11}
!11 = !{!"llvm.loop.mustprogress"}
!12 = distinct !{!12, !11}
!13 = distinct !{!13, !11}
